target datalayout = "e-m:e-p270:32:32-p271:32:32-p272:64:64-i64:64-i128:128-f80:128-n8:16:32:64-S128"
target triple = "x86_64-pc-linux-gnu"

; Function Attrs: nounwind uwtable
define internal ptr @find_end_token(ptr noundef %0, ptr noundef %1) #0 {
  %3 = alloca ptr, align 8
  %4 = alloca ptr, align 8
  %5 = alloca ptr, align 8
  %6 = alloca ptr, align 8
  %7 = alloca ptr, align 8
  %8 = alloca ptr, align 8
  %9 = alloca i32, align 4
  %10 = alloca i8, align 1
  %11 = alloca i32, align 4
  store ptr %0, ptr %4, align 8
  store ptr %1, ptr %5, align 8
  call void @llvm.lifetime.start.p0(i64 8, ptr %6) #9
  store ptr null, ptr %6, align 8
  call void @llvm.lifetime.start.p0(i64 8, ptr %7) #9
  call void @llvm.lifetime.start.p0(i64 8, ptr %8) #9
  store ptr null, ptr %8, align 8
  call void @llvm.lifetime.start.p0(i64 4, ptr %9) #9
  store i32 0, ptr %9, align 4
  call void @llvm.lifetime.start.p0(i64 1, ptr %10) #9
  %12 = load ptr, ptr %5, align 8
  %13 = load i8, ptr %12, align 1
  %14 = icmp ne i8 %13, 0
  br i1 %14, label %18, label %15

15:                                               ; preds = %2
  %16 = load ptr, ptr %5, align 8
  store ptr %16, ptr %6, align 8
  %17 = load ptr, ptr %6, align 8
  store ptr %17, ptr %3, align 8
  store i32 1, ptr %11, align 4
  br label %124

18:                                               ; preds = %2
  br label %19

19:                                               ; preds = %38, %18
  %20 = load ptr, ptr %5, align 8
  %21 = load i32, ptr %9, align 4
  %22 = sext i32 %21 to i64
  %23 = getelementptr inbounds i8, ptr %20, i64 %22
  %24 = load i8, ptr %23, align 1
  %25 = sext i8 %24 to i32
  %26 = icmp eq i32 %25, 37
  br i1 %26, label %27, label %36

27:                                               ; preds = %19
  %28 = load ptr, ptr %5, align 8
  %29 = load i32, ptr %9, align 4
  %30 = add i32 %29, 1
  %31 = sext i32 %30 to i64
  %32 = getelementptr inbounds i8, ptr %28, i64 %31
  %33 = load i8, ptr %32, align 1
  %34 = sext i8 %33 to i32
  %35 = icmp ne i32 %34, 0
  br label %36

36:                                               ; preds = %27, %19
  %37 = phi i1 [ false, %19 ], [ %35, %27 ]
  br i1 %37, label %38, label %41

38:                                               ; preds = %36
  %39 = load i32, ptr %9, align 4
  %40 = add i32 %39, 2
  store i32 %40, ptr %9, align 4
  br label %19, !llvm.loop !41

41:                                               ; preds = %36
  %42 = load ptr, ptr %5, align 8
  %43 = load i32, ptr %9, align 4
  %44 = sext i32 %43 to i64
  %45 = getelementptr inbounds i8, ptr %42, i64 %44
  %46 = call ptr @strchr(ptr noundef %45, i32 noundef 37) #10
  store ptr %46, ptr %7, align 8
  %47 = load ptr, ptr %7, align 8
  %48 = icmp ne ptr %47, null
  br i1 %48, label %49, label %91

49:                                               ; preds = %41
  %50 = load ptr, ptr %7, align 8
  store ptr %50, ptr %8, align 8
  br label %51

51:                                               ; preds = %67, %49
  %52 = load ptr, ptr %8, align 8
  %53 = getelementptr inbounds i8, ptr %52, i64 -1
  %54 = load i8, ptr %53, align 1
  %55 = sext i8 %54 to i32
  %56 = icmp eq i32 %55, 32
  br i1 %56, label %57, label %65

57:                                               ; preds = %51
  %58 = load ptr, ptr %8, align 8
  %59 = getelementptr inbounds i8, ptr %58, i64 -1
  %60 = load ptr, ptr %5, align 8
  %61 = load i32, ptr %9, align 4
  %62 = sext i32 %61 to i64
  %63 = getelementptr inbounds i8, ptr %60, i64 %62
  %64 = icmp ugt ptr %59, %63
  br label %65

65:                                               ; preds = %57, %51
  %66 = phi i1 [ false, %51 ], [ %64, %57 ]
  br i1 %66, label %67, label %70

67:                                               ; preds = %65
  %68 = load ptr, ptr %8, align 8
  %69 = getelementptr inbounds i8, ptr %68, i32 -1
  store ptr %69, ptr %8, align 8
  br label %51, !llvm.loop !42

70:                                               ; preds = %65
  %71 = load ptr, ptr %8, align 8
  %72 = load i8, ptr %71, align 1
  store i8 %72, ptr %10, align 1
  %73 = load ptr, ptr %8, align 8
  store i8 0, ptr %73, align 1
  br label %74

74:                                               ; preds = %79, %70
  %75 = load ptr, ptr %4, align 8
  %76 = load i8, ptr %75, align 1
  %77 = sext i8 %76 to i32
  %78 = icmp eq i32 %77, 32
  br i1 %78, label %79, label %82

79:                                               ; preds = %74
  %80 = load ptr, ptr %4, align 8
  %81 = getelementptr inbounds nuw i8, ptr %80, i32 1
  store ptr %81, ptr %4, align 8
  br label %74, !llvm.loop !43

82:                                               ; preds = %74
  %83 = load ptr, ptr %4, align 8
  %84 = load ptr, ptr %5, align 8
  %85 = load i32, ptr %9, align 4
  %86 = sext i32 %85 to i64
  %87 = getelementptr inbounds i8, ptr %84, i64 %86
  %88 = call ptr @strstr(ptr noundef %83, ptr noundef %87) #10
  store ptr %88, ptr %6, align 8
  %89 = load i8, ptr %10, align 1
  %90 = load ptr, ptr %8, align 8
  store i8 %89, ptr %90, align 1
  br label %96

91:                                               ; preds = %41
  %92 = load ptr, ptr %4, align 8
  %93 = load ptr, ptr %4, align 8
  %94 = call i64 @strlen(ptr noundef %93) #10
  %95 = getelementptr inbounds nuw i8, ptr %92, i64 %94
  store ptr %95, ptr %6, align 8
  br label %96

96:                                               ; preds = %91, %82
  %97 = load ptr, ptr %6, align 8
  %98 = icmp ne ptr %97, null
  br i1 %98, label %122, label %99

99:                                               ; preds = %96
  %100 = load ptr, ptr %5, align 8
  %101 = load i32, ptr %9, align 4
  %102 = sext i32 %101 to i64
  %103 = getelementptr inbounds i8, ptr %100, i64 %102
  %104 = getelementptr inbounds i8, ptr %103, i64 0
  %105 = load i8, ptr %104, align 1
  %106 = sext i8 %105 to i32
  %107 = icmp eq i32 %106, 32
  br i1 %107, label %108, label %121

108:                                              ; preds = %99
  %109 = load ptr, ptr %5, align 8
  %110 = load i32, ptr %9, align 4
  %111 = sext i32 %110 to i64
  %112 = getelementptr inbounds i8, ptr %109, i64 %111
  %113 = getelementptr inbounds i8, ptr %112, i64 1
  %114 = load ptr, ptr %8, align 8
  %115 = icmp eq ptr %113, %114
  br i1 %115, label %116, label %121

116:                                              ; preds = %108
  %117 = load ptr, ptr %4, align 8
  %118 = load ptr, ptr %4, align 8
  %119 = call i64 @strlen(ptr noundef %118) #10
  %120 = getelementptr inbounds nuw i8, ptr %117, i64 %119
  store ptr %120, ptr %6, align 8
  br label %121

121:                                              ; preds = %116, %108, %99
  br label %122

122:                                              ; preds = %121, %96
  %123 = load ptr, ptr %6, align 8
  store ptr %123, ptr %3, align 8
  store i32 1, ptr %11, align 4
  br label %124

124:                                              ; preds = %122, %15
  call void @llvm.lifetime.end.p0(i64 1, ptr %10) #9
  call void @llvm.lifetime.end.p0(i64 4, ptr %9) #9
  call void @llvm.lifetime.end.p0(i64 8, ptr %8) #9
  call void @llvm.lifetime.end.p0(i64 8, ptr %7) #9
  call void @llvm.lifetime.end.p0(i64 8, ptr %6) #9
  %125 = load ptr, ptr %3, align 8
  ret ptr %125
}

; Function Attrs: nounwind uwtable
define internal i32 @pgtypes_defmt_scan(ptr noundef %0, i32 noundef %1, ptr noundef %2, ptr noundef %3) #0 {
  %5 = alloca i32, align 4
  %6 = alloca ptr, align 8
  %7 = alloca i32, align 4
  %8 = alloca ptr, align 8
  %9 = alloca ptr, align 8
  %10 = alloca i8, align 1
  %11 = alloca i32, align 4
  %12 = alloca ptr, align 8
  %13 = alloca ptr, align 8
  %14 = alloca i32, align 4
  store ptr %0, ptr %6, align 8
  store i32 %1, ptr %7, align 4
  store ptr %2, ptr %8, align 8
  store ptr %3, ptr %9, align 8
  call void @llvm.lifetime.start.p0(i64 1, ptr %10) #9
  call void @llvm.lifetime.start.p0(i64 4, ptr %11) #9
  store i32 0, ptr %11, align 4
  call void @llvm.lifetime.start.p0(i64 8, ptr %12) #9
  call void @llvm.lifetime.start.p0(i64 8, ptr %13) #9
  store ptr null, ptr %13, align 8
  br label %15

15:                                               ; preds = %21, %4
  %16 = load ptr, ptr %8, align 8
  %17 = load ptr, ptr %16, align 8
  %18 = load i8, ptr %17, align 1
  %19 = sext i8 %18 to i32
  %20 = icmp eq i32 %19, 32
  br i1 %20, label %21, label %24

21:                                               ; preds = %15
  %22 = load ptr, ptr %8, align 8
  %23 = getelementptr inbounds nuw ptr, ptr %22, i32 1
  store ptr %23, ptr %8, align 8
  br label %15, !llvm.loop !38

24:                                               ; preds = %15
  %25 = load ptr, ptr %8, align 8
  %26 = load ptr, ptr %25, align 8
  %27 = load ptr, ptr %9, align 8
  %28 = call ptr @find_end_token(ptr noundef %26, ptr noundef %27)
  store ptr %28, ptr %12, align 8
  %29 = load ptr, ptr %12, align 8
  %30 = icmp ne ptr %29, null
  br i1 %30, label %32, label %31

31:                                               ; preds = %24
  store i32 1, ptr %5, align 4
  store i32 1, ptr %14, align 4
  br label %110

32:                                               ; preds = %24
  %33 = load ptr, ptr %12, align 8
  %34 = load i8, ptr %33, align 1
  store i8 %34, ptr %10, align 1
  %35 = load ptr, ptr %12, align 8
  store i8 0, ptr %35, align 1
  %36 = load i32, ptr %7, align 4
  switch i32 %36, label %92 [
    i32 6, label %37
    i32 11, label %60
    i32 1, label %82
  ]

37:                                               ; preds = %32
  br label %38

38:                                               ; preds = %44, %37
  %39 = load ptr, ptr %8, align 8
  %40 = load ptr, ptr %39, align 8
  %41 = load i8, ptr %40, align 1
  %42 = sext i8 %41 to i32
  %43 = icmp eq i32 %42, 32
  br i1 %43, label %44, label %48

44:                                               ; preds = %38
  %45 = load ptr, ptr %8, align 8
  %46 = load ptr, ptr %45, align 8
  %47 = getelementptr inbounds nuw i8, ptr %46, i32 1
  store ptr %47, ptr %45, align 8
  br label %38, !llvm.loop !39

48:                                               ; preds = %38
  %49 = call ptr @__errno_location() #11
  store i32 0, ptr %49, align 4
  %50 = load ptr, ptr %8, align 8
  %51 = load ptr, ptr %50, align 8
  %52 = call i64 @strtol(ptr noundef %51, ptr noundef %13, i32 noundef 10) #9
  %53 = trunc i64 %52 to i32
  %54 = load ptr, ptr %6, align 8
  store i32 %53, ptr %54, align 8
  %55 = call ptr @__errno_location() #11
  %56 = load i32, ptr %55, align 4
  %57 = icmp ne i32 %56, 0
  br i1 %57, label %58, label %59

58:                                               ; preds = %48
  store i32 1, ptr %11, align 4
  br label %59

59:                                               ; preds = %58, %48
  br label %92

60:                                               ; preds = %32
  br label %61

61:                                               ; preds = %67, %60
  %62 = load ptr, ptr %8, align 8
  %63 = load ptr, ptr %62, align 8
  %64 = load i8, ptr %63, align 1
  %65 = sext i8 %64 to i32
  %66 = icmp eq i32 %65, 32
  br i1 %66, label %67, label %71

67:                                               ; preds = %61
  %68 = load ptr, ptr %8, align 8
  %69 = load ptr, ptr %68, align 8
  %70 = getelementptr inbounds nuw i8, ptr %69, i32 1
  store ptr %70, ptr %68, align 8
  br label %61, !llvm.loop !40

71:                                               ; preds = %61
  %72 = call ptr @__errno_location() #11
  store i32 0, ptr %72, align 4
  %73 = load ptr, ptr %8, align 8
  %74 = load ptr, ptr %73, align 8
  %75 = call i64 @strtol(ptr noundef %74, ptr noundef %13, i32 noundef 10) #9
  %76 = load ptr, ptr %6, align 8
  store i64 %75, ptr %76, align 8
  %77 = call ptr @__errno_location() #11
  %78 = load i32, ptr %77, align 4
  %79 = icmp ne i32 %78, 0
  br i1 %79, label %80, label %81

80:                                               ; preds = %71
  store i32 1, ptr %11, align 4
  br label %81

81:                                               ; preds = %80, %71
  br label %92

82:                                               ; preds = %32
  %83 = load ptr, ptr %8, align 8
  %84 = load ptr, ptr %83, align 8
  %85 = call ptr @pgtypes_strdup(ptr noundef %84)
  %86 = load ptr, ptr %6, align 8
  store ptr %85, ptr %86, align 8
  %87 = load ptr, ptr %6, align 8
  %88 = load ptr, ptr %87, align 8
  %89 = icmp eq ptr %88, null
  br i1 %89, label %90, label %91

90:                                               ; preds = %82
  store i32 1, ptr %11, align 4
  br label %91

91:                                               ; preds = %90, %82
  br label %92

92:                                               ; preds = %32, %91, %81, %59
  %93 = load ptr, ptr %13, align 8
  %94 = icmp ne ptr %93, null
  br i1 %94, label %95, label %103

95:                                               ; preds = %92
  %96 = load ptr, ptr %13, align 8
  %97 = load i8, ptr %96, align 1
  %98 = sext i8 %97 to i32
  %99 = icmp ne i32 %98, 0
  br i1 %99, label %100, label %103

100:                                              ; preds = %95
  %101 = load ptr, ptr %13, align 8
  %102 = load ptr, ptr %8, align 8
  store ptr %101, ptr %102, align 8
  br label %106

103:                                              ; preds = %95, %92
  %104 = load ptr, ptr %12, align 8
  %105 = load ptr, ptr %8, align 8
  store ptr %104, ptr %105, align 8
  br label %106

106:                                              ; preds = %103, %100
  %107 = load i8, ptr %10, align 1
  %108 = load ptr, ptr %12, align 8
  store i8 %107, ptr %108, align 1
  %109 = load i32, ptr %11, align 4
  store i32 %109, ptr %5, align 4
  store i32 1, ptr %14, align 4
  br label %110

110:                                              ; preds = %106, %31
  call void @llvm.lifetime.end.p0(i64 8, ptr %13) #9
  call void @llvm.lifetime.end.p0(i64 8, ptr %12) #9
  call void @llvm.lifetime.end.p0(i64 4, ptr %11) #9
  call void @llvm.lifetime.end.p0(i64 1, ptr %10) #9
  %111 = load i32, ptr %5, align 4
  ret i32 %111
}