; Function Attrs: nounwind uwtable
define internal fastcc range(i32 0, 2) i32 @pgtypes_defmt_scan(ptr noundef nonnull writeonly captures(none) %0, i32 noundef range(i32 1, 12) %1, ptr noundef nonnull captures(none) %2, ptr noundef %3) unnamed_addr #5 {
  %5 = alloca ptr, align 8
  call void @llvm.lifetime.start.p0(i64 8, ptr nonnull %5) #17
  store ptr null, ptr %5, align 8
  br label %6

6:                                                ; preds = %6, %4
  %.026 = phi ptr [ %2, %4 ], [ %10, %6 ]
  %7 = load ptr, ptr %.026, align 8
  %8 = load i8, ptr %7, align 1
  %9 = icmp eq i8 %8, 32
  %10 = getelementptr inbounds nuw i8, ptr %.026, i64 8
  br i1 %9, label %6, label %11, !llvm.loop !38

11:                                               ; preds = %6
  %12 = load i8, ptr %3, align 1
  switch i8 %12, label %.critedge.i [
    i8 0, label %46
    i8 37, label %.lr.ph.i.preheader
  ]

.lr.ph.i.preheader:                               ; preds = %11
  %13 = getelementptr inbounds nuw i8, ptr %3, i64 1
  %14 = load i8, ptr %13, align 1
  %.not45.i39 = icmp eq i8 %14, 0
  br i1 %.not45.i39, label %.critedge.i, label %.lr.ph

.lr.ph:                                           ; preds = %.lr.ph.i.preheader, %.lr.ph.i
  %.03755.i40 = phi i32 [ %15, %.lr.ph.i ], [ 0, %.lr.ph.i.preheader ]
  %15 = add i32 %.03755.i40, 2
  %16 = sext i32 %15 to i64
  %17 = getelementptr inbounds i8, ptr %3, i64 %16
  %18 = load i8, ptr %17, align 1
  %19 = icmp eq i8 %18, 37
  br i1 %19, label %.lr.ph.i, label %.critedge.i, !llvm.loop !39

.lr.ph.i:                                         ; preds = %.lr.ph
  %20 = or disjoint i32 %15, 1
  %21 = sext i32 %20 to i64
  %22 = getelementptr inbounds i8, ptr %3, i64 %21
  %23 = load i8, ptr %22, align 1
  %.not45.i = icmp eq i8 %23, 0
  br i1 %.not45.i, label %.critedge.i, label %.lr.ph, !llvm.loop !39

.critedge.i:                                      ; preds = %.lr.ph, %.lr.ph.i, %.lr.ph.i.preheader, %11
  %.lcssa54.i = phi i64 [ 0, %11 ], [ 0, %.lr.ph.i.preheader ], [ %16, %.lr.ph.i ], [ %16, %.lr.ph ]
  %24 = getelementptr inbounds i8, ptr %3, i64 %.lcssa54.i
  %25 = tail call ptr @strchr(ptr noundef nonnull dereferenceable(1) %24, i32 noundef 37) #16
  %.not46.i = icmp eq ptr %25, null
  br i1 %.not46.i, label %.sink.split.i, label %.preheader.i

.preheader.i:                                     ; preds = %.critedge.i, %.preheader.i
  %.038.i = phi ptr [ %26, %.preheader.i ], [ %25, %.critedge.i ]
  %26 = getelementptr inbounds i8, ptr %.038.i, i64 -1
  %27 = load i8, ptr %26, align 1
  %28 = icmp eq i8 %27, 32
  %29 = icmp ugt ptr %26, %24
  %30 = and i1 %28, %29
  br i1 %30, label %.preheader.i, label %31, !llvm.loop !40

31:                                               ; preds = %.preheader.i
  %32 = load i8, ptr %.038.i, align 1
  store i8 0, ptr %.038.i, align 1
  br label %33

33:                                               ; preds = %33, %31
  %.039.i = phi ptr [ %7, %31 ], [ %36, %33 ]
  %34 = load i8, ptr %.039.i, align 1
  %35 = icmp eq i8 %34, 32
  %36 = getelementptr inbounds nuw i8, ptr %.039.i, i64 1
  br i1 %35, label %33, label %37, !llvm.loop !41

37:                                               ; preds = %33
  %38 = tail call ptr @strstr(ptr noundef nonnull dereferenceable(1) %.039.i, ptr noundef nonnull dereferenceable(1) %24) #16
  store i8 %32, ptr %.038.i, align 1
  %.not47.i = icmp eq ptr %38, null
  br i1 %.not47.i, label %39, label %46

39:                                               ; preds = %37
  %40 = load i8, ptr %24, align 1
  %41 = icmp eq i8 %40, 32
  %42 = getelementptr inbounds nuw i8, ptr %24, i64 1
  %43 = icmp eq ptr %42, %.038.i
  %or.cond.i = select i1 %41, i1 %43, i1 false
  br i1 %or.cond.i, label %.sink.split.i, label %find_end_token.exit

.sink.split.i:                                    ; preds = %39, %.critedge.i
  %.sink59.i = phi ptr [ %7, %.critedge.i ], [ %.039.i, %39 ]
  %44 = tail call i64 @strlen(ptr noundef nonnull dereferenceable(1) %.sink59.i) #16
  %45 = getelementptr inbounds nuw i8, ptr %.sink59.i, i64 %44
  br label %46

46:                                               ; preds = %11, %37, %.sink.split.i
  %.0.i.ph = phi ptr [ %45, %.sink.split.i ], [ %38, %37 ], [ %3, %11 ]
  %47 = load i8, ptr %.0.i.ph, align 1
  store i8 0, ptr %.0.i.ph, align 1
  switch i32 %1, label %73 [
    i32 6, label %.preheader
    i32 11, label %.preheader38
    i32 1, label %69
  ]

.preheader38:                                     ; preds = %46
  %.026.lcssa.promoted = load ptr, ptr %.026, align 8
  %48 = load i8, ptr %.026.lcssa.promoted, align 1
  %49 = icmp eq i8 %48, 32
  br i1 %49, label %.lr.ph42, label %._crit_edge

.preheader:                                       ; preds = %46
  %.026.lcssa.promoted43 = load ptr, ptr %.026, align 8
  %50 = load i8, ptr %.026.lcssa.promoted43, align 1
  %51 = icmp eq i8 %50, 32
  br i1 %51, label %.lr.ph44, label %._crit_edge45

.lr.ph44:                                         ; preds = %.preheader, %.lr.ph44
  %52 = phi ptr [ %53, %.lr.ph44 ], [ %.026.lcssa.promoted43, %.preheader ]
  %53 = getelementptr inbounds nuw i8, ptr %52, i64 1
  store ptr %53, ptr %.026, align 8
  %54 = load i8, ptr %53, align 1
  %55 = icmp eq i8 %54, 32
  br i1 %55, label %.lr.ph44, label %._crit_edge45, !llvm.loop !42

._crit_edge45:                                    ; preds = %.lr.ph44, %.preheader
  %56 = tail call ptr @__errno_location() #18
  store i32 0, ptr %56, align 4
  %57 = load ptr, ptr %.026, align 8
  %58 = call i64 @strtol(ptr noundef %57, ptr noundef nonnull %5, i32 noundef 10) #17
  %59 = trunc i64 %58 to i32
  store i32 %59, ptr %0, align 8
  %60 = load i32, ptr %56, align 4
  %.not30 = icmp ne i32 %60, 0
  br label %73

.lr.ph42:                                         ; preds = %.preheader38, %.lr.ph42
  %61 = phi ptr [ %62, %.lr.ph42 ], [ %.026.lcssa.promoted, %.preheader38 ]
  %62 = getelementptr inbounds nuw i8, ptr %61, i64 1
  store ptr %62, ptr %.026, align 8
  %63 = load i8, ptr %62, align 1
  %64 = icmp eq i8 %63, 32
  br i1 %64, label %.lr.ph42, label %._crit_edge, !llvm.loop !43

._crit_edge:                                      ; preds = %.lr.ph42, %.preheader38
  %65 = tail call ptr @__errno_location() #18
  store i32 0, ptr %65, align 4
  %66 = load ptr, ptr %.026, align 8
  %67 = call i64 @strtol(ptr noundef %66, ptr noundef nonnull %5, i32 noundef 10) #17
  store i64 %67, ptr %0, align 8
  %68 = load i32, ptr %65, align 4
  %.not29 = icmp ne i32 %68, 0
  br label %73

69:                                               ; preds = %46
  %70 = load ptr, ptr %.026, align 8
  %71 = tail call ptr @pgtypes_strdup(ptr noundef %70) #17
  store ptr %71, ptr %0, align 8
  %72 = icmp eq ptr %71, null
  br label %73

73:                                               ; preds = %69, %._crit_edge, %._crit_edge45, %46
  %.025.shrunk = phi i1 [ false, %46 ], [ %.not30, %._crit_edge45 ], [ %.not29, %._crit_edge ], [ %72, %69 ]
  %.025 = zext i1 %.025.shrunk to i32
  %74 = load ptr, ptr %5, align 8
  %.not31 = icmp eq ptr %74, null
  br i1 %.not31, label %77, label %75

75:                                               ; preds = %73
  %76 = load i8, ptr %74, align 1
  %.not32 = icmp eq i8 %76, 0
  br i1 %.not32, label %77, label %78

77:                                               ; preds = %75, %73
  br label %78

78:                                               ; preds = %75, %77
  %storemerge = phi ptr [ %.0.i.ph, %77 ], [ %74, %75 ]
  store ptr %storemerge, ptr %.026, align 8
  store i8 %47, ptr %.0.i.ph, align 1
  br label %find_end_token.exit

find_end_token.exit:                              ; preds = %39, %78
  %.0 = phi i32 [ %.025, %78 ], [ 1, %39 ]
  call void @llvm.lifetime.end.p0(i64 8, ptr nonnull %5) #17
  ret i32 %.0
}